target datalayout = "e-m:e-p270:32:32-p271:32:32-p272:64:64-i64:64-i128:128-f80:128-n8:16:32:64-S128"
target triple = "x86_64-pc-linux-gnu"

%struct.v3_ext_ctx = type { i32, ptr, ptr, ptr, ptr, ptr, ptr, ptr }
%struct.extvalues_st = type { ptr, i32 }

@.str.14 = private unnamed_addr constant [24 x i8] c"../openssl/test/v3ext.c\00", align 1
@.str.93 = private unnamed_addr constant [7 x i8] c"extbio\00", align 1
@.str.94 = private unnamed_addr constant [5 x i8] c"conf\00", align 1
@.str.95 = private unnamed_addr constant [37 x i8] c"NCONF_load_bio(conf, extbio, &eline)\00", align 1
@.str.96 = private unnamed_addr constant [2 x i8] c"0\00", align 1
@.str.97 = private unnamed_addr constant [50 x i8] c"X509V3_EXT_add_nconf(conf, &ctx, \22default\22, NULL)\00", align 1
@.str.98 = private unnamed_addr constant [8 x i8] c"default\00", align 1
@.str.99 = private unnamed_addr constant [10 x i8] c"Value: %s\00", align 1

; Function Attrs: nounwind uwtable
define internal i32 @test_ext_syntax() #0 {
  %1 = alloca i32, align 4
  %2 = alloca i64, align 8
  %3 = alloca i32, align 4
  %4 = alloca %struct.v3_ext_ctx, align 8
  %5 = alloca ptr, align 8
  %6 = alloca ptr, align 8
  %7 = alloca i64, align 8
  %8 = alloca i32, align 4
  call void @llvm.lifetime.start.p0(i64 8, ptr %2) #6
  call void @llvm.lifetime.start.p0(i64 4, ptr %3) #6
  store i32 1, ptr %3, align 4, !tbaa !13
  store i64 0, ptr %2, align 8, !tbaa !15
  br label %9

9:                                                ; preds = %89, %0
  %10 = load i64, ptr %2, align 8, !tbaa !15
  %11 = icmp ult i64 %10, 26
  br i1 %11, label %12, label %92

12:                                               ; preds = %9
  call void @llvm.lifetime.start.p0(i64 64, ptr %4) #6
  call void @llvm.lifetime.start.p0(i64 8, ptr %5) #6
  %13 = load i64, ptr %2, align 8, !tbaa !15
  %14 = getelementptr inbounds nuw [26 x %struct.extvalues_st], ptr @extvalues, i64 0, i64 %13
  %15 = getelementptr inbounds nuw %struct.extvalues_st, ptr %14, i32 0, i32 0
  %16 = load ptr, ptr %15, align 16, !tbaa !33
  %17 = load i64, ptr %2, align 8, !tbaa !15
  %18 = getelementptr inbounds nuw [26 x %struct.extvalues_st], ptr @extvalues, i64 0, i64 %17
  %19 = getelementptr inbounds nuw %struct.extvalues_st, ptr %18, i32 0, i32 0
  %20 = load ptr, ptr %19, align 16, !tbaa !33
  %21 = call i64 @strlen(ptr noundef %20) #7
  %22 = trunc i64 %21 to i32
  %23 = call ptr @BIO_new_mem_buf(ptr noundef %16, i32 noundef %22)
  store ptr %23, ptr %5, align 8, !tbaa !11
  call void @llvm.lifetime.start.p0(i64 8, ptr %6) #6
  call void @llvm.lifetime.start.p0(i64 8, ptr %7) #6
  %24 = load ptr, ptr %5, align 8, !tbaa !11
  %25 = call i32 @test_ptr(ptr noundef @.str.14, i32 noundef 383, ptr noundef @.str.93, ptr noundef %24)
  %26 = icmp ne i32 %25, 0
  br i1 %26, label %28, label %27

27:                                               ; preds = %12
  store i32 0, ptr %1, align 4
  store i32 1, ptr %8, align 4
  br label %86

28:                                               ; preds = %12
  %29 = call ptr @NCONF_new_ex(ptr noundef null, ptr noundef null)
  store ptr %29, ptr %6, align 8, !tbaa !35
  %30 = load ptr, ptr %6, align 8, !tbaa !35
  %31 = call i32 @test_ptr(ptr noundef @.str.14, i32 noundef 387, ptr noundef @.str.94, ptr noundef %30)
  %32 = icmp ne i32 %31, 0
  br i1 %32, label %36, label %33

33:                                               ; preds = %28
  %34 = load ptr, ptr %5, align 8, !tbaa !11
  %35 = call i32 @BIO_free(ptr noundef %34)
  store i32 0, ptr %1, align 4
  store i32 1, ptr %8, align 4
  br label %86

36:                                               ; preds = %28
  %37 = load ptr, ptr %6, align 8, !tbaa !35
  %38 = load ptr, ptr %5, align 8, !tbaa !11
  %39 = call i32 @NCONF_load_bio(ptr noundef %37, ptr noundef %38, ptr noundef %7)
  %40 = sext i32 %39 to i64
  %41 = call i32 @test_long_gt(ptr noundef @.str.14, i32 noundef 391, ptr noundef @.str.95, ptr noundef @.str.96, i64 noundef %40, i64 noundef 0)
  %42 = icmp ne i32 %41, 0
  br i1 %42, label %44, label %43

43:                                               ; preds = %36
  store i32 0, ptr %3, align 4, !tbaa !13
  br label %82

44:                                               ; preds = %36
  call void @X509V3_set_ctx(ptr noundef %4, ptr noundef null, ptr noundef null, ptr noundef null, ptr noundef null, i32 noundef 1)
  %45 = load ptr, ptr %6, align 8, !tbaa !35
  call void @X509V3_set_nconf(ptr noundef %4, ptr noundef %45)
  %46 = load i64, ptr %2, align 8, !tbaa !15
  %47 = getelementptr inbounds nuw [26 x %struct.extvalues_st], ptr @extvalues, i64 0, i64 %46
  %48 = getelementptr inbounds nuw %struct.extvalues_st, ptr %47, i32 0, i32 1
  %49 = load i32, ptr %48, align 8, !tbaa !37
  %50 = icmp ne i32 %49, 0
  br i1 %50, label %51, label %64

51:                                               ; preds = %44
  %52 = load ptr, ptr %6, align 8, !tbaa !35
  %53 = call i32 @X509V3_EXT_add_nconf(ptr noundef %52, ptr noundef %4, ptr noundef @.str.98, ptr noundef null)
  %54 = icmp ne i32 %53, 0
  %55 = zext i1 %54 to i32
  %56 = call i32 @test_true(ptr noundef @.str.14, i32 noundef 399, ptr noundef @.str.97, i32 noundef %55)
  %57 = icmp ne i32 %56, 0
  br i1 %57, label %63, label %58

58:                                               ; preds = %51
  %59 = load i64, ptr %2, align 8, !tbaa !15
  %60 = getelementptr inbounds nuw [26 x %struct.extvalues_st], ptr @extvalues, i64 0, i64 %59
  %61 = getelementptr inbounds nuw %struct.extvalues_st, ptr %60, i32 0, i32 0
  %62 = load ptr, ptr %61, align 16, !tbaa !33
  call void (ptr, i32, ptr, ...) @test_info(ptr noundef @.str.14, i32 noundef 400, ptr noundef @.str.99, ptr noundef %62)
  store i32 0, ptr %3, align 4, !tbaa !13
  br label %63

63:                                               ; preds = %58, %51
  br label %81

64:                                               ; preds = %44
  %65 = call i32 @ERR_set_mark()
  %66 = load ptr, ptr %6, align 8, !tbaa !35
  %67 = call i32 @X509V3_EXT_add_nconf(ptr noundef %66, ptr noundef %4, ptr noundef @.str.98, ptr noundef null)
  %68 = icmp ne i32 %67, 0
  %69 = zext i1 %68 to i32
  %70 = call i32 @test_false(ptr noundef @.str.14, i32 noundef 406, ptr noundef @.str.97, i32 noundef %69)
  %71 = icmp ne i32 %70, 0
  br i1 %71, label %78, label %72

72:                                               ; preds = %64
  store i32 0, ptr %3, align 4, !tbaa !13
  %73 = load i64, ptr %2, align 8, !tbaa !15
  %74 = getelementptr inbounds nuw [26 x %struct.extvalues_st], ptr @extvalues, i64 0, i64 %73
  %75 = getelementptr inbounds nuw %struct.extvalues_st, ptr %74, i32 0, i32 0
  %76 = load ptr, ptr %75, align 16, !tbaa !33
  call void (ptr, i32, ptr, ...) @test_info(ptr noundef @.str.14, i32 noundef 408, ptr noundef @.str.99, ptr noundef %76)
  %77 = call i32 @ERR_clear_last_mark()
  br label %80

78:                                               ; preds = %64
  %79 = call i32 @ERR_pop_to_mark()
  br label %80

80:                                               ; preds = %78, %72
  br label %81

81:                                               ; preds = %80, %63
  br label %82

82:                                               ; preds = %81, %43
  %83 = load ptr, ptr %5, align 8, !tbaa !11
  %84 = call i32 @BIO_free(ptr noundef %83)
  %85 = load ptr, ptr %6, align 8, !tbaa !35
  call void @NCONF_free(ptr noundef %85)
  store i32 0, ptr %8, align 4
  br label %86

86:                                               ; preds = %82, %33, %27
  call void @llvm.lifetime.end.p0(i64 8, ptr %7) #6
  call void @llvm.lifetime.end.p0(i64 8, ptr %6) #6
  call void @llvm.lifetime.end.p0(i64 8, ptr %5) #6
  call void @llvm.lifetime.end.p0(i64 64, ptr %4) #6
  %87 = load i32, ptr %8, align 4
  switch i32 %87, label %94 [
    i32 0, label %88
  ]

88:                                               ; preds = %86
  br label %89

89:                                               ; preds = %88
  %90 = load i64, ptr %2, align 8, !tbaa !15
  %91 = add i64 %90, 1
  store i64 %91, ptr %2, align 8, !tbaa !15
  br label %9, !llvm.loop !38

92:                                               ; preds = %9
  %93 = load i32, ptr %3, align 4, !tbaa !13
  store i32 %93, ptr %1, align 4
  store i32 1, ptr %8, align 4
  br label %94

94:                                               ; preds = %92, %86
  call void @llvm.lifetime.end.p0(i64 4, ptr %3) #6
  call void @llvm.lifetime.end.p0(i64 8, ptr %2) #6
  %95 = load i32, ptr %1, align 4
  ret i32 %95
}