; Function Attrs: nounwind uwtable
define internal range(i32 0, 2) i32 @test_ext_syntax() #1 {
  %1 = alloca %struct.v3_ext_ctx, align 8
  %2 = alloca i64, align 8
  br label %3

3:                                                ; preds = %0, %38
  %.02035 = phi i64 [ 0, %0 ], [ %40, %38 ]
  %.02134 = phi i32 [ 1, %0 ], [ %.223, %38 ]
  call void @llvm.lifetime.start.p0(i64 64, ptr nonnull %1) #6
  %4 = getelementptr inbounds nuw [26 x %struct.extvalues_st], ptr @extvalues, i64 0, i64 %.02035
  %5 = load ptr, ptr %4, align 16, !tbaa !30
  %6 = call i64 @strlen(ptr noundef nonnull dereferenceable(1) %5) #7
  %7 = trunc i64 %6 to i32
  %8 = call ptr @BIO_new_mem_buf(ptr noundef nonnull %5, i32 noundef %7) #6
  call void @llvm.lifetime.start.p0(i64 8, ptr nonnull %2) #6
  %9 = call i32 @test_ptr(ptr noundef nonnull @.str.14, i32 noundef 383, ptr noundef nonnull @.str.93, ptr noundef %8) #6
  %.not = icmp eq i32 %9, 0
  br i1 %.not, label %.thread, label %10

10:                                               ; preds = %3
  %11 = call ptr @NCONF_new_ex(ptr noundef null, ptr noundef null) #6
  %12 = call i32 @test_ptr(ptr noundef nonnull @.str.14, i32 noundef 387, ptr noundef nonnull @.str.94, ptr noundef %11) #6
  %.not24 = icmp eq i32 %12, 0
  br i1 %.not24, label %13, label %15

13:                                               ; preds = %10
  %14 = call i32 @BIO_free(ptr noundef %8) #6
  br label %.thread

15:                                               ; preds = %10
  %16 = call i32 @NCONF_load_bio(ptr noundef %11, ptr noundef %8, ptr noundef nonnull %2) #6
  %17 = sext i32 %16 to i64
  %18 = call i32 @test_long_gt(ptr noundef nonnull @.str.14, i32 noundef 391, ptr noundef nonnull @.str.95, ptr noundef nonnull @.str.96, i64 noundef %17, i64 noundef 0) #6
  %.not25 = icmp eq i32 %18, 0
  br i1 %.not25, label %38, label %19

19:                                               ; preds = %15
  call void @X509V3_set_ctx(ptr noundef nonnull %1, ptr noundef null, ptr noundef null, ptr noundef null, ptr noundef null, i32 noundef 1) #6
  call void @X509V3_set_nconf(ptr noundef nonnull %1, ptr noundef %11) #6
  %20 = getelementptr inbounds nuw i8, ptr %4, i64 8
  %21 = load i32, ptr %20, align 8, !tbaa !32
  %.not26 = icmp eq i32 %21, 0
  br i1 %.not26, label %28, label %22

22:                                               ; preds = %19
  %23 = call i32 @X509V3_EXT_add_nconf(ptr noundef %11, ptr noundef nonnull %1, ptr noundef nonnull @.str.98, ptr noundef null) #6
  %24 = icmp ne i32 %23, 0
  %25 = zext i1 %24 to i32
  %26 = call i32 @test_true(ptr noundef nonnull @.str.14, i32 noundef 399, ptr noundef nonnull @.str.97, i32 noundef %25) #6
  %.not28 = icmp eq i32 %26, 0
  br i1 %.not28, label %27, label %38

27:                                               ; preds = %22
  call void (ptr, i32, ptr, ...) @test_info(ptr noundef nonnull @.str.14, i32 noundef 400, ptr noundef nonnull @.str.99, ptr noundef nonnull %5) #6
  br label %38

28:                                               ; preds = %19
  %29 = call i32 @ERR_set_mark() #6
  %30 = call i32 @X509V3_EXT_add_nconf(ptr noundef %11, ptr noundef nonnull %1, ptr noundef nonnull @.str.98, ptr noundef null) #6
  %31 = icmp ne i32 %30, 0
  %32 = zext i1 %31 to i32
  %33 = call i32 @test_false(ptr noundef nonnull @.str.14, i32 noundef 406, ptr noundef nonnull @.str.97, i32 noundef %32) #6
  %.not27 = icmp eq i32 %33, 0
  br i1 %.not27, label %34, label %36

34:                                               ; preds = %28
  call void (ptr, i32, ptr, ...) @test_info(ptr noundef nonnull @.str.14, i32 noundef 408, ptr noundef nonnull @.str.99, ptr noundef nonnull %5) #6
  %35 = call i32 @ERR_clear_last_mark() #6
  br label %38

36:                                               ; preds = %28
  %37 = call i32 @ERR_pop_to_mark() #6
  br label %38

.thread:                                          ; preds = %3, %13
  call void @llvm.lifetime.end.p0(i64 8, ptr nonnull %2) #6
  call void @llvm.lifetime.end.p0(i64 64, ptr nonnull %1) #6
  br label %.loopexit

38:                                               ; preds = %15, %27, %22, %36, %34
  %.223 = phi i32 [ %.02134, %22 ], [ 0, %27 ], [ %.02134, %36 ], [ 0, %34 ], [ 0, %15 ]
  %39 = call i32 @BIO_free(ptr noundef %8) #6
  call void @NCONF_free(ptr noundef %11) #6
  call void @llvm.lifetime.end.p0(i64 8, ptr nonnull %2) #6
  call void @llvm.lifetime.end.p0(i64 64, ptr nonnull %1) #6
  %40 = add nuw nsw i64 %.02035, 1
  %exitcond.not = icmp eq i64 %40, 26
  br i1 %exitcond.not, label %.loopexit, label %3, !llvm.loop !33

.loopexit:                                        ; preds = %38, %.thread
  %.2 = phi i32 [ 0, %.thread ], [ %.223, %38 ]
  ret i32 %.2
}